	.file	"bitmanipulation.cc"
	.text
	.section	.text$_ZNKSt5ctypeIcE8do_widenEc,"x"
	.linkonce discard
	.align 2
	.p2align 4
	.globl	_ZNKSt5ctypeIcE8do_widenEc
	.def	_ZNKSt5ctypeIcE8do_widenEc;	.scl	2;	.type	32;	.endef
	.seh_proc	_ZNKSt5ctypeIcE8do_widenEc
_ZNKSt5ctypeIcE8do_widenEc:
.LFB1413:
	.seh_endprologue
	movl	%edx, %eax
	ret
	.seh_endproc
	.text
	.p2align 4
	.def	__tcf_0;	.scl	3;	.type	32;	.endef
	.seh_proc	__tcf_0
__tcf_0:
.LFB2156:
	.seh_endprologue
	leaq	_ZStL8__ioinit(%rip), %rcx
	jmp	_ZNSt8ios_base4InitD1Ev
	.seh_endproc
	.p2align 4
	.def	_ZSt4endlIcSt11char_traitsIcEERSt13basic_ostreamIT_T0_ES6_.isra.0;	.scl	3;	.type	32;	.endef
	.seh_proc	_ZSt4endlIcSt11char_traitsIcEERSt13basic_ostreamIT_T0_ES6_.isra.0
_ZSt4endlIcSt11char_traitsIcEERSt13basic_ostreamIT_T0_ES6_.isra.0:
.LFB2159:
	pushq	%r13
	.seh_pushreg	%r13
	pushq	%r12
	.seh_pushreg	%r12
	subq	$40, %rsp
	.seh_stackalloc	40
	.seh_endprologue
	movq	(%rcx), %rax
	movq	-24(%rax), %rax
	movq	240(%rcx,%rax), %r13
	movq	%rcx, %r12
	testq	%r13, %r13
	je	.L9
	cmpb	$0, 56(%r13)
	je	.L6
	movsbl	67(%r13), %edx
.L7:
	movq	%r12, %rcx
	call	_ZNSo3putEc
	movq	%rax, %rcx
	addq	$40, %rsp
	popq	%r12
	popq	%r13
	jmp	_ZNSo5flushEv
.L6:
	movq	%r13, %rcx
	call	_ZNKSt5ctypeIcE13_M_widen_initEv
	movq	0(%r13), %rax
	movl	$10, %edx
	leaq	_ZNKSt5ctypeIcE8do_widenEc(%rip), %rcx
	movq	48(%rax), %rax
	cmpq	%rcx, %rax
	je	.L7
	movl	$10, %edx
	movq	%r13, %rcx
	call	*%rax
	movsbl	%al, %edx
	jmp	.L7
.L9:
	call	_ZSt16__throw_bad_castv
	nop
	.seh_endproc
	.def	__main;	.scl	2;	.type	32;	.endef
	.section	.text.startup,"x"
	.p2align 4
	.globl	main
	.def	main;	.scl	2;	.type	32;	.endef
	.seh_proc	main
main:
.LFB1658:
	subq	$40, %rsp
	.seh_stackalloc	40
	.seh_endprologue
	call	__main
	movl	$6, %edx
	movl	$3, %ecx
	call	_Z10averagetwoii
	movq	.refptr._ZSt4cout(%rip), %rcx
	movl	%eax, %edx
	call	_ZNSolsEi
	movq	%rax, %rcx
	call	_ZSt4endlIcSt11char_traitsIcEERSt13basic_ostreamIT_T0_ES6_.isra.0
	movl	$50, %r9d
	movl	$11, %r8d
	movl	$10, %edx
	movl	$5, %ecx
	call	_Z11averagefouriiii
	movq	.refptr._ZSt4cout(%rip), %rcx
	movl	%eax, %edx
	call	_ZNSolsEi
	movq	%rax, %rcx
	call	_ZSt4endlIcSt11char_traitsIcEERSt13basic_ostreamIT_T0_ES6_.isra.0
	xorl	%eax, %eax
	addq	$40, %rsp
	ret
	.seh_endproc
	.p2align 4
	.def	_GLOBAL__sub_I_main;	.scl	3;	.type	32;	.endef
	.seh_proc	_GLOBAL__sub_I_main
_GLOBAL__sub_I_main:
.LFB2157:
	subq	$40, %rsp
	.seh_stackalloc	40
	.seh_endprologue
	leaq	_ZStL8__ioinit(%rip), %rcx
	call	_ZNSt8ios_base4InitC1Ev
	leaq	__tcf_0(%rip), %rcx
	addq	$40, %rsp
	jmp	atexit
	.seh_endproc
	.section	.ctors,"w"
	.align 8
	.quad	_GLOBAL__sub_I_main
.lcomm _ZStL8__ioinit,1,1
	.ident	"GCC: (Rev6, Built by MSYS2 project) 10.2.0"
	.def	_ZNSt8ios_base4InitD1Ev;	.scl	2;	.type	32;	.endef
	.def	_ZNSo3putEc;	.scl	2;	.type	32;	.endef
	.def	_ZNSo5flushEv;	.scl	2;	.type	32;	.endef
	.def	_ZNKSt5ctypeIcE13_M_widen_initEv;	.scl	2;	.type	32;	.endef
	.def	_ZSt16__throw_bad_castv;	.scl	2;	.type	32;	.endef
	.def	_Z10averagetwoii;	.scl	2;	.type	32;	.endef
	.def	_ZNSolsEi;	.scl	2;	.type	32;	.endef
	.def	_Z11averagefouriiii;	.scl	2;	.type	32;	.endef
	.def	_ZNSt8ios_base4InitC1Ev;	.scl	2;	.type	32;	.endef
	.def	atexit;	.scl	2;	.type	32;	.endef
	.section	.rdata$.refptr._ZSt4cout, "dr"
	.globl	.refptr._ZSt4cout
	.linkonce	discard
.refptr._ZSt4cout:
	.quad	_ZSt4cout
